target datalayout = "e-m:e-p270:32:32-p271:32:32-p272:64:64-i64:64-i128:128-f80:128-n8:16:32:64-S128"
target triple = "x86_64-pc-linux-gnu"

; Function Attrs: nounwind uwtable
define void @QuESTAssert(i32 noundef %0, i32 noundef %1, ptr noundef %2) #0 {
  %4 = alloca i32, align 4
  %5 = alloca i32, align 4
  %6 = alloca ptr, align 8
  store i32 %0, ptr %4, align 4, !tbaa !9
  store i32 %1, ptr %5, align 4, !tbaa !9
  store ptr %2, ptr %6, align 8, !tbaa !4
  %7 = load i32, ptr %4, align 4, !tbaa !9
  %8 = icmp ne i32 %7, 0
  br i1 %8, label %15, label %9

9:                                                ; preds = %3
  %10 = load i32, ptr %5, align 4, !tbaa !9
  %11 = zext i32 %10 to i64
  %12 = getelementptr inbounds nuw [92 x ptr], ptr @errorMessages, i64 0, i64 %11
  %13 = load ptr, ptr %12, align 8, !tbaa !4
  %14 = load ptr, ptr %6, align 8, !tbaa !4
  call void @invalidQuESTInputError(ptr noundef %13, ptr noundef %14)
  br label %15

15:                                               ; preds = %9, %3
  ret void
}

; Function Attrs: nounwind uwtable
define void @validateMultiRegBitEncoding(ptr noundef %0, i32 noundef %1, i32 noundef %2, ptr noundef %3) #0 {
  %5 = alloca ptr, align 8
  %6 = alloca i32, align 4
  %7 = alloca i32, align 4
  %8 = alloca ptr, align 8
  %9 = alloca i32, align 4
  store ptr %0, ptr %5, align 8, !tbaa !30
  store i32 %1, ptr %6, align 4, !tbaa !9
  store i32 %2, ptr %7, align 4, !tbaa !9
  store ptr %3, ptr %8, align 8, !tbaa !4
  %10 = load i32, ptr %7, align 4, !tbaa !9
  %11 = icmp eq i32 %10, 0
  br i1 %11, label %15, label %12

12:                                               ; preds = %4
  %13 = load i32, ptr %7, align 4, !tbaa !9
  %14 = icmp eq i32 %13, 1
  br label %15

15:                                               ; preds = %12, %4
  %16 = phi i1 [ true, %4 ], [ %14, %12 ]
  %17 = zext i1 %16 to i32
  %18 = load ptr, ptr %8, align 8, !tbaa !4
  call void @QuESTAssert(i32 noundef %17, i32 noundef 77, ptr noundef %18)
  %19 = load i32, ptr %7, align 4, !tbaa !9
  %20 = icmp eq i32 %19, 1
  br i1 %20, label %21, label %40

21:                                               ; preds = %15
  call void @llvm.lifetime.start.p0(i64 4, ptr %9) #7
  store i32 0, ptr %9, align 4, !tbaa !9
  br label %22

22:                                               ; preds = %36, %21
  %23 = load i32, ptr %9, align 4, !tbaa !9
  %24 = load i32, ptr %6, align 4, !tbaa !9
  %25 = icmp slt i32 %23, %24
  br i1 %25, label %27, label %26

26:                                               ; preds = %22
  call void @llvm.lifetime.end.p0(i64 4, ptr %9) #7
  br label %39

27:                                               ; preds = %22
  %28 = load ptr, ptr %5, align 8, !tbaa !30
  %29 = load i32, ptr %9, align 4, !tbaa !9
  %30 = sext i32 %29 to i64
  %31 = getelementptr inbounds i32, ptr %28, i64 %30
  %32 = load i32, ptr %31, align 4, !tbaa !9
  %33 = icmp sgt i32 %32, 1
  %34 = zext i1 %33 to i32
  %35 = load ptr, ptr %8, align 8, !tbaa !4
  call void @QuESTAssert(i32 noundef %34, i32 noundef 78, ptr noundef %35)
  br label %36

36:                                               ; preds = %27
  %37 = load i32, ptr %9, align 4, !tbaa !9
  %38 = add nsw i32 %37, 1
  store i32 %38, ptr %9, align 4, !tbaa !9
  br label %22

39:                                               ; preds = %26
  br label %40

40:                                               ; preds = %39, %15
  ret void
}