; Function Attrs: nounwind uwtable
define void @validateMultiRegBitEncoding(ptr noundef readonly captures(none) %0, i32 noundef %1, i32 noundef %2, ptr noundef %3) local_unnamed_addr #3 {
  %5 = icmp ugt i32 %2, 1
  br i1 %5, label %QuESTAssert.exit.thread, label %QuESTAssert.exit

QuESTAssert.exit.thread:                          ; preds = %4
  tail call void @invalidQuESTInputError(ptr noundef nonnull @.str.79, ptr noundef %3)
  br label %.loopexit

QuESTAssert.exit:                                 ; preds = %4
  %6 = icmp eq i32 %2, 1
  %7 = icmp sgt i32 %1, 0
  %or.cond = and i1 %6, %7
  br i1 %or.cond, label %.lr.ph.preheader, label %.loopexit

.lr.ph.preheader:                                 ; preds = %QuESTAssert.exit
  %wide.trip.count = zext nneg i32 %1 to i64
  br label %.lr.ph

.lr.ph:                                           ; preds = %.lr.ph.preheader, %QuESTAssert.exit10
  %indvars.iv = phi i64 [ 0, %.lr.ph.preheader ], [ %indvars.iv.next, %QuESTAssert.exit10 ]
  %8 = getelementptr inbounds nuw i32, ptr %0, i64 %indvars.iv
  %9 = load i32, ptr %8, align 4, !tbaa !20
  %10 = icmp slt i32 %9, 2
  br i1 %10, label %11, label %QuESTAssert.exit10

11:                                               ; preds = %.lr.ph
  tail call void @invalidQuESTInputError(ptr noundef nonnull @.str.80, ptr noundef %3)
  br label %QuESTAssert.exit10

QuESTAssert.exit10:                               ; preds = %.lr.ph, %11
  %indvars.iv.next = add nuw nsw i64 %indvars.iv, 1
  %exitcond.not = icmp eq i64 %indvars.iv.next, %wide.trip.count
  br i1 %exitcond.not, label %.loopexit, label %.lr.ph

.loopexit:                                        ; preds = %QuESTAssert.exit10, %QuESTAssert.exit.thread, %QuESTAssert.exit
  ret void
}